; Function Attrs: nounwind uwtable
define internal void @synth_filter_fixed_64(ptr noundef readonly captures(none) %0, ptr noundef %1, ptr noundef captures(none) %2, ptr noundef captures(none) %3, ptr noundef readonly captures(none) %4, ptr noundef writeonly captures(none) %5, ptr noundef %6) #1 {
  %8 = load i32, ptr %2, align 4, !tbaa !12
  %9 = sext i32 %8 to i64
  %10 = getelementptr inbounds i32, ptr %1, i64 %9
  %11 = getelementptr inbounds nuw i8, ptr %0, i64 8
  %12 = load ptr, ptr %11, align 8, !tbaa !23
  tail call void %12(ptr noundef %10, ptr noundef %6) #4
  %invariant.gep = getelementptr i8, ptr %10, i64 -4096
  %invariant.gep154 = getelementptr i8, ptr %10, i64 124
  %invariant.gep158 = getelementptr i8, ptr %10, i64 252
  %invariant.gep160 = getelementptr i8, ptr %10, i64 -3972
  %invariant.gep164 = getelementptr i8, ptr %10, i64 -3844
  br label %13

13:                                               ; preds = %7, %._crit_edge
  %indvars.iv134 = phi i64 [ 0, %7 ], [ %indvars.iv.next135, %._crit_edge ]
  %14 = getelementptr inbounds nuw i32, ptr %3, i64 %indvars.iv134
  %15 = load i32, ptr %14, align 4, !tbaa !12
  %16 = sext i32 %15 to i64
  %17 = shl nsw i64 %16, 20
  %18 = or disjoint i64 %indvars.iv134, 32
  %19 = getelementptr inbounds nuw i32, ptr %3, i64 %18
  %20 = load i32, ptr %19, align 4, !tbaa !12
  %21 = sext i32 %20 to i64
  %22 = shl nsw i64 %21, 20
  %23 = load i32, ptr %2, align 4, !tbaa !12
  %24 = icmp slt i32 %23, 1024
  br i1 %24, label %.lr.ph.preheader, label %.lr.ph114.preheader

.lr.ph.preheader:                                 ; preds = %13
  %25 = sub nsw i32 1024, %23
  %26 = zext nneg i32 %25 to i64
  %invariant.gep156 = getelementptr inbounds nuw i32, ptr %10, i64 %18
  br label %.lr.ph

.preheader:                                       ; preds = %.lr.ph
  %27 = icmp samesign ult i64 %indvars.iv, 896
  br i1 %27, label %.lr.ph114.preheader, label %._crit_edge

.lr.ph114.preheader:                              ; preds = %13, %.preheader
  %.0.lcssa146 = phi i64 [ %59, %.preheader ], [ 0, %13 ]
  %.085.lcssa145 = phi i64 [ %52, %.preheader ], [ 0, %13 ]
  %.087.lcssa144 = phi i64 [ %45, %.preheader ], [ %22, %13 ]
  %.089.lcssa143 = phi i64 [ %37, %.preheader ], [ %17, %13 ]
  %.091.lcssa142 = phi i64 [ %indvars.iv.next, %.preheader ], [ 0, %13 ]
  %28 = and i64 %.091.lcssa142, 4294967295
  %invariant.gep162 = getelementptr i32, ptr %invariant.gep, i64 %18
  br label %.lr.ph114

.lr.ph:                                           ; preds = %.lr.ph.preheader, %.lr.ph
  %indvars.iv = phi i64 [ 0, %.lr.ph.preheader ], [ %indvars.iv.next, %.lr.ph ]
  %.0102 = phi i64 [ 0, %.lr.ph.preheader ], [ %59, %.lr.ph ]
  %.085101 = phi i64 [ 0, %.lr.ph.preheader ], [ %52, %.lr.ph ]
  %.087100 = phi i64 [ %22, %.lr.ph.preheader ], [ %45, %.lr.ph ]
  %.08999 = phi i64 [ %17, %.lr.ph.preheader ], [ %37, %.lr.ph ]
  %29 = or disjoint i64 %indvars.iv, %indvars.iv134
  %30 = getelementptr inbounds nuw i32, ptr %4, i64 %29
  %31 = load i32, ptr %30, align 4, !tbaa !12
  %32 = sext i32 %31 to i64
  %33 = getelementptr inbounds nuw i32, ptr %10, i64 %29
  %34 = load i32, ptr %33, align 4, !tbaa !12
  %35 = sext i32 %34 to i64
  %36 = mul nsw i64 %35, %32
  %37 = add nsw i64 %36, %.08999
  %38 = getelementptr inbounds nuw i8, ptr %30, i64 128
  %39 = load i32, ptr %38, align 4, !tbaa !12
  %40 = sext i32 %39 to i64
  %41 = sub nsw i64 %indvars.iv, %indvars.iv134
  %gep155 = getelementptr i32, ptr %invariant.gep154, i64 %41
  %42 = load i32, ptr %gep155, align 4, !tbaa !12
  %43 = sext i32 %42 to i64
  %44 = mul nsw i64 %43, %40
  %45 = add nsw i64 %44, %.087100
  %46 = getelementptr inbounds nuw i8, ptr %30, i64 256
  %47 = load i32, ptr %46, align 4, !tbaa !12
  %48 = sext i32 %47 to i64
  %gep157 = getelementptr inbounds nuw i32, ptr %invariant.gep156, i64 %indvars.iv
  %49 = load i32, ptr %gep157, align 4, !tbaa !12
  %50 = sext i32 %49 to i64
  %51 = mul nsw i64 %50, %48
  %52 = add nsw i64 %51, %.085101
  %53 = getelementptr inbounds nuw i8, ptr %30, i64 384
  %54 = load i32, ptr %53, align 4, !tbaa !12
  %55 = sext i32 %54 to i64
  %gep159 = getelementptr i32, ptr %invariant.gep158, i64 %41
  %56 = load i32, ptr %gep159, align 4, !tbaa !12
  %57 = sext i32 %56 to i64
  %58 = mul nsw i64 %57, %55
  %59 = add nsw i64 %58, %.0102
  %indvars.iv.next = add nuw nsw i64 %indvars.iv, 128
  %60 = icmp samesign ult i64 %indvars.iv.next, %26
  br i1 %60, label %.lr.ph, label %.preheader, !llvm.loop !27

.lr.ph114:                                        ; preds = %.lr.ph114.preheader, %.lr.ph114
  %indvars.iv130 = phi i64 [ %28, %.lr.ph114.preheader ], [ %indvars.iv.next131, %.lr.ph114 ]
  %.1113 = phi i64 [ %.0.lcssa146, %.lr.ph114.preheader ], [ %90, %.lr.ph114 ]
  %.186112 = phi i64 [ %.085.lcssa145, %.lr.ph114.preheader ], [ %83, %.lr.ph114 ]
  %.188111 = phi i64 [ %.087.lcssa144, %.lr.ph114.preheader ], [ %76, %.lr.ph114 ]
  %.190110 = phi i64 [ %.089.lcssa143, %.lr.ph114.preheader ], [ %68, %.lr.ph114 ]
  %61 = or disjoint i64 %indvars.iv130, %indvars.iv134
  %62 = getelementptr inbounds nuw i32, ptr %4, i64 %61
  %63 = load i32, ptr %62, align 4, !tbaa !12
  %64 = sext i32 %63 to i64
  %gep = getelementptr i32, ptr %invariant.gep, i64 %61
  %65 = load i32, ptr %gep, align 4, !tbaa !12
  %66 = sext i32 %65 to i64
  %67 = mul nsw i64 %66, %64
  %68 = add nsw i64 %67, %.190110
  %69 = getelementptr inbounds nuw i8, ptr %62, i64 128
  %70 = load i32, ptr %69, align 4, !tbaa !12
  %71 = sext i32 %70 to i64
  %72 = sub nsw i64 %indvars.iv130, %indvars.iv134
  %gep161 = getelementptr i32, ptr %invariant.gep160, i64 %72
  %73 = load i32, ptr %gep161, align 4, !tbaa !12
  %74 = sext i32 %73 to i64
  %75 = mul nsw i64 %74, %71
  %76 = add nsw i64 %75, %.188111
  %77 = getelementptr inbounds nuw i8, ptr %62, i64 256
  %78 = load i32, ptr %77, align 4, !tbaa !12
  %79 = sext i32 %78 to i64
  %gep163 = getelementptr i32, ptr %invariant.gep162, i64 %indvars.iv130
  %80 = load i32, ptr %gep163, align 4, !tbaa !12
  %81 = sext i32 %80 to i64
  %82 = mul nsw i64 %81, %79
  %83 = add nsw i64 %82, %.186112
  %84 = getelementptr inbounds nuw i8, ptr %62, i64 384
  %85 = load i32, ptr %84, align 4, !tbaa !12
  %86 = sext i32 %85 to i64
  %gep165 = getelementptr i32, ptr %invariant.gep164, i64 %72
  %87 = load i32, ptr %gep165, align 4, !tbaa !12
  %88 = sext i32 %87 to i64
  %89 = mul nsw i64 %88, %86
  %90 = add nsw i64 %89, %.1113
  %indvars.iv.next131 = add nuw nsw i64 %indvars.iv130, 128
  %91 = icmp samesign ult i64 %indvars.iv130, 896
  br i1 %91, label %.lr.ph114, label %._crit_edge, !llvm.loop !28

._crit_edge:                                      ; preds = %.lr.ph114, %.preheader
  %.190.lcssa = phi i64 [ %37, %.preheader ], [ %68, %.lr.ph114 ]
  %.188.lcssa = phi i64 [ %45, %.preheader ], [ %76, %.lr.ph114 ]
  %.186.lcssa = phi i64 [ %52, %.preheader ], [ %83, %.lr.ph114 ]
  %.1.lcssa = phi i64 [ %59, %.preheader ], [ %90, %.lr.ph114 ]
  %92 = add nsw i64 %.190.lcssa, 524288
  %93 = lshr i64 %92, 20
  %94 = trunc i64 %93 to i32
  %95 = tail call i32 @llvm.smax.i32(i32 %94, i32 -8388608)
  %.0.i.i = tail call range(i32 -8388608, 8388608) i32 @llvm.smin.i32(i32 %95, i32 8388607)
  %96 = getelementptr inbounds nuw i32, ptr %5, i64 %indvars.iv134
  store i32 %.0.i.i, ptr %96, align 4, !tbaa !12
  %97 = add nsw i64 %.188.lcssa, 524288
  %98 = lshr i64 %97, 20
  %99 = trunc i64 %98 to i32
  %100 = tail call i32 @llvm.smax.i32(i32 %99, i32 -8388608)
  %.0.i.i97 = tail call range(i32 -8388608, 8388608) i32 @llvm.smin.i32(i32 %100, i32 8388607)
  %101 = getelementptr inbounds nuw i32, ptr %5, i64 %18
  store i32 %.0.i.i97, ptr %101, align 4, !tbaa !12
  %102 = add nsw i64 %.186.lcssa, 524288
  %103 = lshr i64 %102, 20
  %104 = trunc i64 %103 to i32
  store i32 %104, ptr %14, align 4, !tbaa !12
  %105 = add nsw i64 %.1.lcssa, 524288
  %106 = lshr i64 %105, 20
  %107 = trunc i64 %106 to i32
  store i32 %107, ptr %19, align 4, !tbaa !12
  %indvars.iv.next135 = add nuw nsw i64 %indvars.iv134, 1
  %exitcond.not = icmp eq i64 %indvars.iv.next135, 32
  br i1 %exitcond.not, label %108, label %13, !llvm.loop !29

108:                                              ; preds = %._crit_edge
  %109 = load i32, ptr %2, align 4, !tbaa !12
  %110 = add i32 %109, 960
  %111 = and i32 %110, 1023
  store i32 %111, ptr %2, align 4, !tbaa !12
  ret void
}